; Function Attrs: mustprogress uwtable
define dso_local void @_ZNK4pbrt16FloatPtexTexture8ToStringB5cxx11Ev(ptr noalias sret(%"class.std::__cxx11::basic_string") align 8 %agg.result, ptr noundef nonnull align 8 dereferenceable(52) %this) local_unnamed_addr #0 align 2 personality ptr @__gxx_personality_v0 {
entry:
  %ref.tmp = alloca %"class.std::__cxx11::basic_string", align 8
  %filename.i = getelementptr inbounds i8, ptr %this, i64 8
  %encoding.i = getelementptr inbounds i8, ptr %this, i64 40
  %scale.i = getelementptr inbounds i8, ptr %this, i64 48
  call void @_ZNSt7__cxx1112basic_stringIcSt11char_traitsIcESaIcEEC1Ev(ptr noundef nonnull align 8 dereferenceable(32) %ref.tmp) #23
  invoke void @_ZN4pbrt6detail21stringPrintfRecursiveIRKbJRKNSt7__cxx1112basic_stringIcSt11char_traitsIcESaIcEEERKNS_13ColorEncodingERKfEEEvPS9_PKcOT_DpOT0_(ptr noundef nonnull %ref.tmp, ptr noundef nonnull @.str.85, ptr noundef nonnull align 1 dereferenceable(1) %this, ptr noundef nonnull align 8 dereferenceable(32) %filename.i, ptr noundef nonnull align 8 dereferenceable(8) %encoding.i, ptr noundef nonnull align 4 dereferenceable(4) %scale.i)
          to label %_ZNK4pbrt15PtexTextureBase12BaseToStringB5cxx11Ev.exit unwind label %lpad.i.i

common.resume:                                    ; preds = %lpad.i, %lpad.i.i
  %common.resume.op = phi { ptr, i32 } [ %0, %lpad.i.i ], [ %1, %lpad.i ]
  call void @_ZNSt7__cxx1112basic_stringIcSt11char_traitsIcESaIcEED1Ev(ptr noundef nonnull align 8 dereferenceable(32) %ref.tmp) #23
  resume { ptr, i32 } %common.resume.op

lpad.i.i:                                         ; preds = %entry
  %0 = landingpad { ptr, i32 }
          cleanup
  br label %common.resume

_ZNK4pbrt15PtexTextureBase12BaseToStringB5cxx11Ev.exit: ; preds = %entry
  call void @_ZNSt7__cxx1112basic_stringIcSt11char_traitsIcESaIcEEC1Ev(ptr noundef nonnull align 8 dereferenceable(32) %agg.result) #23
  invoke void @_ZN4pbrt6detail21stringPrintfRecursiveINSt7__cxx1112basic_stringIcSt11char_traitsIcESaIcEEEJEEEvPS7_PKcOT_DpOT0_(ptr noundef nonnull %agg.result, ptr noundef nonnull @.str.86, ptr noundef nonnull align 8 dereferenceable(32) %ref.tmp)
          to label %invoke.cont unwind label %lpad.i

lpad.i:                                           ; preds = %_ZNK4pbrt15PtexTextureBase12BaseToStringB5cxx11Ev.exit
  %1 = landingpad { ptr, i32 }
          cleanup
  call void @_ZNSt7__cxx1112basic_stringIcSt11char_traitsIcESaIcEED1Ev(ptr noundef nonnull align 8 dereferenceable(32) %agg.result) #23
  br label %common.resume

invoke.cont:                                      ; preds = %_ZNK4pbrt15PtexTextureBase12BaseToStringB5cxx11Ev.exit
  call void @_ZNSt7__cxx1112basic_stringIcSt11char_traitsIcESaIcEED1Ev(ptr noundef nonnull align 8 dereferenceable(32) %ref.tmp) #23
  ret void
}